; ModuleID = 'source-C-CXX/55/345.c'
source_filename = "source-C-CXX/55/345.c"
target datalayout = "e-m:e-p270:32:32-p271:32:32-p272:64:64-i64:64-f80:128-n8:16:32:64-S128"
target triple = "x86_64-pc-linux-gnu"

@.str = private unnamed_addr constant [3 x i8] c"%d\00", align 1
@.str.1 = private unnamed_addr constant [12 x i8] c"%d%d%d%d%d\0A\00", align 1
@.str.2 = private unnamed_addr constant [10 x i8] c"%d%d%d%d\0A\00", align 1
@.str.3 = private unnamed_addr constant [8 x i8] c"%d%d%d\0A\00", align 1
@.str.4 = private unnamed_addr constant [6 x i8] c"%d%d\0A\00", align 1
@.str.5 = private unnamed_addr constant [4 x i8] c"%d\0A\00", align 1

; Function Attrs: nofree nounwind sspstrong uwtable
define dso_local i32 @main() local_unnamed_addr #0 {
  %1 = alloca i32, align 4
  %2 = bitcast i32* %1 to i8*
  call void @llvm.lifetime.start.p0i8(i64 4, i8* nonnull %2) #3
  %3 = call i32 (i8*, ...) @__isoc99_scanf(i8* getelementptr inbounds ([3 x i8], [3 x i8]* @.str, i64 0, i64 0), i32* nonnull %1)
  %4 = load i32, i32* %1, align 4, !tbaa !5
  %5 = sdiv i32 %4, 10000
  %6 = mul nsw i32 %5, -10000
  %7 = add i32 %6, %4
  %8 = sdiv i32 %7, 1000
  %9 = mul nsw i32 %8, -1000
  %10 = add i32 %9, %7
  %11 = sdiv i32 %10, 100
  %12 = mul nsw i32 %11, -100
  %13 = add i32 %12, %10
  %14 = sdiv i32 %13, 10
  %15 = mul nsw i32 %14, -10
  %16 = add i32 %15, %13
  %17 = add i32 %4, 9999
  %18 = icmp ult i32 %17, 19999
  br i1 %18, label %22, label %19

19:                                               ; preds = %0
  %20 = call i32 (i8*, ...) @printf(i8* nonnull dereferenceable(1) getelementptr inbounds ([12 x i8], [12 x i8]* @.str.1, i64 0, i64 0), i32 %16, i32 %14, i32 %11, i32 %8, i32 %5)
  %21 = add i32 %7, 999
  br label %27

22:                                               ; preds = %0
  %23 = add i32 %7, 999
  %24 = icmp ugt i32 %23, 1998
  br i1 %24, label %25, label %32

25:                                               ; preds = %22
  %26 = call i32 (i8*, ...) @printf(i8* nonnull dereferenceable(1) getelementptr inbounds ([10 x i8], [10 x i8]* @.str.2, i64 0, i64 0), i32 %16, i32 %14, i32 %11, i32 %8)
  br label %27

27:                                               ; preds = %19, %25
  %28 = phi i32 [ %23, %25 ], [ %21, %19 ]
  %29 = icmp ult i32 %28, 1999
  %30 = select i1 %18, i1 %29, i1 false
  %31 = add i32 %10, 99
  br label %37

32:                                               ; preds = %22
  %33 = add i32 %10, 99
  %34 = icmp ugt i32 %33, 198
  br i1 %34, label %35, label %37

35:                                               ; preds = %32
  %36 = call i32 (i8*, ...) @printf(i8* nonnull dereferenceable(1) getelementptr inbounds ([8 x i8], [8 x i8]* @.str.3, i64 0, i64 0), i32 %16, i32 %14, i32 %11)
  br label %52

37:                                               ; preds = %27, %32
  %38 = phi i32 [ %31, %27 ], [ %33, %32 ]
  %39 = phi i1 [ %30, %27 ], [ true, %32 ]
  %40 = icmp ult i32 %38, 199
  %41 = select i1 %39, i1 %40, i1 false
  %42 = add i32 %13, 9
  %43 = icmp ugt i32 %42, 18
  %44 = select i1 %41, i1 %43, i1 false
  br i1 %44, label %45, label %47

45:                                               ; preds = %37
  %46 = call i32 (i8*, ...) @printf(i8* nonnull dereferenceable(1) getelementptr inbounds ([6 x i8], [6 x i8]* @.str.4, i64 0, i64 0), i32 %16, i32 %14)
  br label %52

47:                                               ; preds = %37
  %48 = icmp ult i32 %42, 19
  %49 = select i1 %41, i1 %48, i1 false
  br i1 %49, label %50, label %52

50:                                               ; preds = %47
  %51 = call i32 (i8*, ...) @printf(i8* nonnull dereferenceable(1) getelementptr inbounds ([4 x i8], [4 x i8]* @.str.5, i64 0, i64 0), i32 %16)
  br label %52

52:                                               ; preds = %35, %45, %50, %47
  call void @llvm.lifetime.end.p0i8(i64 4, i8* nonnull %2) #3
  ret i32 0
}

; Function Attrs: argmemonly mustprogress nofree nosync nounwind willreturn
declare void @llvm.lifetime.start.p0i8(i64 immarg, i8* nocapture) #1

; Function Attrs: nofree nounwind
declare noundef i32 @__isoc99_scanf(i8* nocapture noundef readonly, ...) local_unnamed_addr #2

; Function Attrs: nofree nounwind
declare noundef i32 @printf(i8* nocapture noundef readonly, ...) local_unnamed_addr #2

; Function Attrs: argmemonly mustprogress nofree nosync nounwind willreturn
declare void @llvm.lifetime.end.p0i8(i64 immarg, i8* nocapture) #1


!llvm.module.flags = !{!0, !1, !2, !3}
!llvm.ident = !{!4}

!0 = !{i32 1, !"wchar_size", i32 4}
!1 = !{i32 7, !"PIC Level", i32 2}
!2 = !{i32 7, !"PIE Level", i32 2}
!3 = !{i32 7, !"uwtable", i32 1}
!4 = !{!"clang version 13.0.0"}
!5 = !{!6, !6, i64 0}
!6 = !{!"int", !7, i64 0}
!7 = !{!"omnipotent char", !8, i64 0}
!8 = !{!"Simple C/C++ TBAA"}
